target datalayout = "e-m:e-p270:32:32-p271:32:32-p272:64:64-i64:64-i128:128-f80:128-n8:16:32:64-S128"
target triple = "x86_64-pc-linux-gnu"

%class.State = type { [315 x i32], [315 x i16], i32, ptr, [2 x ptr] }

@_ZN19Abstract_VM_Version9_featuresE = external global i64, align 8

; Function Attrs: mustprogress nounwind uwtable
define linkonce_odr hidden noundef zeroext i1 @_ZN10VM_Version13supports_gfniEv() #1 comdat align 2 {
  %1 = load i64, ptr @_ZN19Abstract_VM_Version9_featuresE, align 8
  %2 = and i64 %1, 2251799813685248
  %3 = icmp ne i64 %2, 0
  ret i1 %3
}

; Function Attrs: mustprogress nounwind uwtable
define hidden void @_ZN5State16_sub_Op_ReverseLEPK4Node(ptr noundef nonnull align 8 dereferenceable(1920) %0, ptr noundef %1) #1 align 2 {
  %3 = alloca ptr, align 8
  %4 = alloca ptr, align 8
  %5 = alloca i32, align 4
  %6 = alloca i32, align 4
  store ptr %0, ptr %3, align 8
  store ptr %1, ptr %4, align 8
  %7 = load ptr, ptr %3, align 8
  %8 = getelementptr inbounds %class.State, ptr %7, i32 0, i32 4
  %9 = getelementptr inbounds [2 x ptr], ptr %8, i64 0, i64 0
  %10 = load ptr, ptr %9, align 8
  %11 = icmp ne ptr %10, null
  br i1 %11, label %12, label %73

12:                                               ; preds = %2
  %13 = getelementptr inbounds %class.State, ptr %7, i32 0, i32 4
  %14 = getelementptr inbounds [2 x ptr], ptr %13, i64 0, i64 0
  %15 = load ptr, ptr %14, align 8
  %16 = getelementptr inbounds %class.State, ptr %15, i32 0, i32 1
  %17 = getelementptr inbounds [315 x i16], ptr %16, i64 0, i64 68
  %18 = load i16, ptr %17, align 4
  %19 = zext i16 %18 to i32
  %20 = and i32 %19, 1
  %21 = icmp ne i32 %20, 0
  br i1 %21, label %22, label %73

22:                                               ; preds = %12
  %23 = call noundef zeroext i1 @_ZN10VM_Version13supports_gfniEv()
  br i1 %23, label %24, label %73

24:                                               ; preds = %22
  %25 = getelementptr inbounds %class.State, ptr %7, i32 0, i32 4
  %26 = getelementptr inbounds [2 x ptr], ptr %25, i64 0, i64 0
  %27 = load ptr, ptr %26, align 8
  %28 = getelementptr inbounds %class.State, ptr %27, i32 0, i32 0
  %29 = getelementptr inbounds [315 x i32], ptr %28, i64 0, i64 68
  %30 = load i32, ptr %29, align 8
  %31 = add i32 %30, 100
  store i32 %31, ptr %5, align 4
  %32 = load i32, ptr %5, align 4
  %33 = getelementptr inbounds %class.State, ptr %7, i32 0, i32 0
  %34 = getelementptr inbounds [315 x i32], ptr %33, i64 0, i64 68
  store i32 %32, ptr %34, align 8
  %35 = getelementptr inbounds %class.State, ptr %7, i32 0, i32 1
  %36 = getelementptr inbounds [315 x i16], ptr %35, i64 0, i64 68
  store i16 1285, ptr %36, align 4
  %37 = load i32, ptr %5, align 4
  %38 = add i32 %37, 100
  %39 = getelementptr inbounds %class.State, ptr %7, i32 0, i32 0
  %40 = getelementptr inbounds [315 x i32], ptr %39, i64 0, i64 108
  store i32 %38, ptr %40, align 8
  %41 = getelementptr inbounds %class.State, ptr %7, i32 0, i32 1
  %42 = getelementptr inbounds [315 x i16], ptr %41, i64 0, i64 108
  store i16 633, ptr %42, align 4
  %43 = load i32, ptr %5, align 4
  %44 = getelementptr inbounds %class.State, ptr %7, i32 0, i32 0
  %45 = getelementptr inbounds [315 x i32], ptr %44, i64 0, i64 69
  store i32 %43, ptr %45, align 4
  %46 = getelementptr inbounds %class.State, ptr %7, i32 0, i32 1
  %47 = getelementptr inbounds [315 x i16], ptr %46, i64 0, i64 69
  store i16 1285, ptr %47, align 2
  %48 = load i32, ptr %5, align 4
  %49 = getelementptr inbounds %class.State, ptr %7, i32 0, i32 0
  %50 = getelementptr inbounds [315 x i32], ptr %49, i64 0, i64 70
  store i32 %48, ptr %50, align 8
  %51 = getelementptr inbounds %class.State, ptr %7, i32 0, i32 1
  %52 = getelementptr inbounds [315 x i16], ptr %51, i64 0, i64 70
  store i16 1285, ptr %52, align 4
  %53 = load i32, ptr %5, align 4
  %54 = getelementptr inbounds %class.State, ptr %7, i32 0, i32 0
  %55 = getelementptr inbounds [315 x i32], ptr %54, i64 0, i64 74
  store i32 %53, ptr %55, align 8
  %56 = getelementptr inbounds %class.State, ptr %7, i32 0, i32 1
  %57 = getelementptr inbounds [315 x i16], ptr %56, i64 0, i64 74
  store i16 1285, ptr %57, align 4
  %58 = load i32, ptr %5, align 4
  %59 = getelementptr inbounds %class.State, ptr %7, i32 0, i32 0
  %60 = getelementptr inbounds [315 x i32], ptr %59, i64 0, i64 71
  store i32 %58, ptr %60, align 4
  %61 = getelementptr inbounds %class.State, ptr %7, i32 0, i32 1
  %62 = getelementptr inbounds [315 x i16], ptr %61, i64 0, i64 71
  store i16 1285, ptr %62, align 2
  %63 = load i32, ptr %5, align 4
  %64 = getelementptr inbounds %class.State, ptr %7, i32 0, i32 0
  %65 = getelementptr inbounds [315 x i32], ptr %64, i64 0, i64 72
  store i32 %63, ptr %65, align 8
  %66 = getelementptr inbounds %class.State, ptr %7, i32 0, i32 1
  %67 = getelementptr inbounds [315 x i16], ptr %66, i64 0, i64 72
  store i16 1285, ptr %67, align 4
  %68 = load i32, ptr %5, align 4
  %69 = getelementptr inbounds %class.State, ptr %7, i32 0, i32 0
  %70 = getelementptr inbounds [315 x i32], ptr %69, i64 0, i64 73
  store i32 %68, ptr %70, align 4
  %71 = getelementptr inbounds %class.State, ptr %7, i32 0, i32 1
  %72 = getelementptr inbounds [315 x i16], ptr %71, i64 0, i64 73
  store i16 1285, ptr %72, align 2
  br label %73

73:                                               ; preds = %24, %22, %12, %2
  %74 = getelementptr inbounds %class.State, ptr %7, i32 0, i32 4
  %75 = getelementptr inbounds [2 x ptr], ptr %74, i64 0, i64 0
  %76 = load ptr, ptr %75, align 8
  %77 = icmp ne ptr %76, null
  br i1 %77, label %78, label %252

78:                                               ; preds = %73
  %79 = getelementptr inbounds %class.State, ptr %7, i32 0, i32 4
  %80 = getelementptr inbounds [2 x ptr], ptr %79, i64 0, i64 0
  %81 = load ptr, ptr %80, align 8
  %82 = getelementptr inbounds %class.State, ptr %81, i32 0, i32 1
  %83 = getelementptr inbounds [315 x i16], ptr %82, i64 0, i64 68
  %84 = load i16, ptr %83, align 4
  %85 = zext i16 %84 to i32
  %86 = and i32 %85, 1
  %87 = icmp ne i32 %86, 0
  br i1 %87, label %88, label %252

88:                                               ; preds = %78
  %89 = call noundef zeroext i1 @_ZN10VM_Version13supports_gfniEv()
  br i1 %89, label %252, label %90

90:                                               ; preds = %88
  %91 = getelementptr inbounds %class.State, ptr %7, i32 0, i32 4
  %92 = getelementptr inbounds [2 x ptr], ptr %91, i64 0, i64 0
  %93 = load ptr, ptr %92, align 8
  %94 = getelementptr inbounds %class.State, ptr %93, i32 0, i32 0
  %95 = getelementptr inbounds [315 x i32], ptr %94, i64 0, i64 68
  %96 = load i32, ptr %95, align 8
  %97 = add i32 %96, 100
  store i32 %97, ptr %6, align 4
  %98 = getelementptr inbounds %class.State, ptr %7, i32 0, i32 1
  %99 = getelementptr inbounds [315 x i16], ptr %98, i64 0, i64 68
  %100 = load i16, ptr %99, align 4
  %101 = zext i16 %100 to i32
  %102 = and i32 %101, 1
  %103 = icmp eq i32 %102, 0
  br i1 %103, label %110, label %104

104:                                              ; preds = %90
  %105 = getelementptr inbounds %class.State, ptr %7, i32 0, i32 0
  %106 = getelementptr inbounds [315 x i32], ptr %105, i64 0, i64 68
  %107 = load i32, ptr %106, align 8
  %108 = load i32, ptr %6, align 4
  %109 = icmp ugt i32 %107, %108
  br i1 %109, label %110, label %116

110:                                              ; preds = %104, %90
  %111 = load i32, ptr %6, align 4
  %112 = getelementptr inbounds %class.State, ptr %7, i32 0, i32 0
  %113 = getelementptr inbounds [315 x i32], ptr %112, i64 0, i64 68
  store i32 %111, ptr %113, align 8
  %114 = getelementptr inbounds %class.State, ptr %7, i32 0, i32 1
  %115 = getelementptr inbounds [315 x i16], ptr %114, i64 0, i64 68
  store i16 1283, ptr %115, align 4
  br label %116

116:                                              ; preds = %110, %104
  %117 = getelementptr inbounds %class.State, ptr %7, i32 0, i32 1
  %118 = getelementptr inbounds [315 x i16], ptr %117, i64 0, i64 108
  %119 = load i16, ptr %118, align 4
  %120 = zext i16 %119 to i32
  %121 = and i32 %120, 1
  %122 = icmp eq i32 %121, 0
  br i1 %122, label %130, label %123

123:                                              ; preds = %116
  %124 = getelementptr inbounds %class.State, ptr %7, i32 0, i32 0
  %125 = getelementptr inbounds [315 x i32], ptr %124, i64 0, i64 108
  %126 = load i32, ptr %125, align 8
  %127 = load i32, ptr %6, align 4
  %128 = add i32 %127, 100
  %129 = icmp ugt i32 %126, %128
  br i1 %129, label %130, label %137

130:                                              ; preds = %123, %116
  %131 = load i32, ptr %6, align 4
  %132 = add i32 %131, 100
  %133 = getelementptr inbounds %class.State, ptr %7, i32 0, i32 0
  %134 = getelementptr inbounds [315 x i32], ptr %133, i64 0, i64 108
  store i32 %132, ptr %134, align 8
  %135 = getelementptr inbounds %class.State, ptr %7, i32 0, i32 1
  %136 = getelementptr inbounds [315 x i16], ptr %135, i64 0, i64 108
  store i16 633, ptr %136, align 4
  br label %137

137:                                              ; preds = %130, %123
  %138 = getelementptr inbounds %class.State, ptr %7, i32 0, i32 1
  %139 = getelementptr inbounds [315 x i16], ptr %138, i64 0, i64 69
  %140 = load i16, ptr %139, align 2
  %141 = zext i16 %140 to i32
  %142 = and i32 %141, 1
  %143 = icmp eq i32 %142, 0
  br i1 %143, label %150, label %144

144:                                              ; preds = %137
  %145 = getelementptr inbounds %class.State, ptr %7, i32 0, i32 0
  %146 = getelementptr inbounds [315 x i32], ptr %145, i64 0, i64 69
  %147 = load i32, ptr %146, align 4
  %148 = load i32, ptr %6, align 4
  %149 = icmp ugt i32 %147, %148
  br i1 %149, label %150, label %156

150:                                              ; preds = %144, %137
  %151 = load i32, ptr %6, align 4
  %152 = getelementptr inbounds %class.State, ptr %7, i32 0, i32 0
  %153 = getelementptr inbounds [315 x i32], ptr %152, i64 0, i64 69
  store i32 %151, ptr %153, align 4
  %154 = getelementptr inbounds %class.State, ptr %7, i32 0, i32 1
  %155 = getelementptr inbounds [315 x i16], ptr %154, i64 0, i64 69
  store i16 1283, ptr %155, align 2
  br label %156

156:                                              ; preds = %150, %144
  %157 = getelementptr inbounds %class.State, ptr %7, i32 0, i32 1
  %158 = getelementptr inbounds [315 x i16], ptr %157, i64 0, i64 70
  %159 = load i16, ptr %158, align 4
  %160 = zext i16 %159 to i32
  %161 = and i32 %160, 1
  %162 = icmp eq i32 %161, 0
  br i1 %162, label %169, label %163

163:                                              ; preds = %156
  %164 = getelementptr inbounds %class.State, ptr %7, i32 0, i32 0
  %165 = getelementptr inbounds [315 x i32], ptr %164, i64 0, i64 70
  %166 = load i32, ptr %165, align 8
  %167 = load i32, ptr %6, align 4
  %168 = icmp ugt i32 %166, %167
  br i1 %168, label %169, label %175

169:                                              ; preds = %163, %156
  %170 = load i32, ptr %6, align 4
  %171 = getelementptr inbounds %class.State, ptr %7, i32 0, i32 0
  %172 = getelementptr inbounds [315 x i32], ptr %171, i64 0, i64 70
  store i32 %170, ptr %172, align 8
  %173 = getelementptr inbounds %class.State, ptr %7, i32 0, i32 1
  %174 = getelementptr inbounds [315 x i16], ptr %173, i64 0, i64 70
  store i16 1283, ptr %174, align 4
  br label %175

175:                                              ; preds = %169, %163
  %176 = getelementptr inbounds %class.State, ptr %7, i32 0, i32 1
  %177 = getelementptr inbounds [315 x i16], ptr %176, i64 0, i64 74
  %178 = load i16, ptr %177, align 4
  %179 = zext i16 %178 to i32
  %180 = and i32 %179, 1
  %181 = icmp eq i32 %180, 0
  br i1 %181, label %188, label %182

182:                                              ; preds = %175
  %183 = getelementptr inbounds %class.State, ptr %7, i32 0, i32 0
  %184 = getelementptr inbounds [315 x i32], ptr %183, i64 0, i64 74
  %185 = load i32, ptr %184, align 8
  %186 = load i32, ptr %6, align 4
  %187 = icmp ugt i32 %185, %186
  br i1 %187, label %188, label %194

188:                                              ; preds = %182, %175
  %189 = load i32, ptr %6, align 4
  %190 = getelementptr inbounds %class.State, ptr %7, i32 0, i32 0
  %191 = getelementptr inbounds [315 x i32], ptr %190, i64 0, i64 74
  store i32 %189, ptr %191, align 8
  %192 = getelementptr inbounds %class.State, ptr %7, i32 0, i32 1
  %193 = getelementptr inbounds [315 x i16], ptr %192, i64 0, i64 74
  store i16 1283, ptr %193, align 4
  br label %194

194:                                              ; preds = %188, %182
  %195 = getelementptr inbounds %class.State, ptr %7, i32 0, i32 1
  %196 = getelementptr inbounds [315 x i16], ptr %195, i64 0, i64 71
  %197 = load i16, ptr %196, align 2
  %198 = zext i16 %197 to i32
  %199 = and i32 %198, 1
  %200 = icmp eq i32 %199, 0
  br i1 %200, label %207, label %201

201:                                              ; preds = %194
  %202 = getelementptr inbounds %class.State, ptr %7, i32 0, i32 0
  %203 = getelementptr inbounds [315 x i32], ptr %202, i64 0, i64 71
  %204 = load i32, ptr %203, align 4
  %205 = load i32, ptr %6, align 4
  %206 = icmp ugt i32 %204, %205
  br i1 %206, label %207, label %213

207:                                              ; preds = %201, %194
  %208 = load i32, ptr %6, align 4
  %209 = getelementptr inbounds %class.State, ptr %7, i32 0, i32 0
  %210 = getelementptr inbounds [315 x i32], ptr %209, i64 0, i64 71
  store i32 %208, ptr %210, align 4
  %211 = getelementptr inbounds %class.State, ptr %7, i32 0, i32 1
  %212 = getelementptr inbounds [315 x i16], ptr %211, i64 0, i64 71
  store i16 1283, ptr %212, align 2
  br label %213

213:                                              ; preds = %207, %201
  %214 = getelementptr inbounds %class.State, ptr %7, i32 0, i32 1
  %215 = getelementptr inbounds [315 x i16], ptr %214, i64 0, i64 72
  %216 = load i16, ptr %215, align 4
  %217 = zext i16 %216 to i32
  %218 = and i32 %217, 1
  %219 = icmp eq i32 %218, 0
  br i1 %219, label %226, label %220

220:                                              ; preds = %213
  %221 = getelementptr inbounds %class.State, ptr %7, i32 0, i32 0
  %222 = getelementptr inbounds [315 x i32], ptr %221, i64 0, i64 72
  %223 = load i32, ptr %222, align 8
  %224 = load i32, ptr %6, align 4
  %225 = icmp ugt i32 %223, %224
  br i1 %225, label %226, label %232

226:                                              ; preds = %220, %213
  %227 = load i32, ptr %6, align 4
  %228 = getelementptr inbounds %class.State, ptr %7, i32 0, i32 0
  %229 = getelementptr inbounds [315 x i32], ptr %228, i64 0, i64 72
  store i32 %227, ptr %229, align 8
  %230 = getelementptr inbounds %class.State, ptr %7, i32 0, i32 1
  %231 = getelementptr inbounds [315 x i16], ptr %230, i64 0, i64 72
  store i16 1283, ptr %231, align 4
  br label %232

232:                                              ; preds = %226, %220
  %233 = getelementptr inbounds %class.State, ptr %7, i32 0, i32 1
  %234 = getelementptr inbounds [315 x i16], ptr %233, i64 0, i64 73
  %235 = load i16, ptr %234, align 2
  %236 = zext i16 %235 to i32
  %237 = and i32 %236, 1
  %238 = icmp eq i32 %237, 0
  br i1 %238, label %245, label %239

239:                                              ; preds = %232
  %240 = getelementptr inbounds %class.State, ptr %7, i32 0, i32 0
  %241 = getelementptr inbounds [315 x i32], ptr %240, i64 0, i64 73
  %242 = load i32, ptr %241, align 4
  %243 = load i32, ptr %6, align 4
  %244 = icmp ugt i32 %242, %243
  br i1 %244, label %245, label %251

245:                                              ; preds = %239, %232
  %246 = load i32, ptr %6, align 4
  %247 = getelementptr inbounds %class.State, ptr %7, i32 0, i32 0
  %248 = getelementptr inbounds [315 x i32], ptr %247, i64 0, i64 73
  store i32 %246, ptr %248, align 4
  %249 = getelementptr inbounds %class.State, ptr %7, i32 0, i32 1
  %250 = getelementptr inbounds [315 x i16], ptr %249, i64 0, i64 73
  store i16 1283, ptr %250, align 2
  br label %251

251:                                              ; preds = %245, %239
  br label %252

252:                                              ; preds = %251, %88, %78, %73
  ret void
}