; Function Attrs: mustprogress nofree norecurse nosync nounwind willreturn memory(read, argmem: readwrite, inaccessiblemem: none) uwtable
define hidden void @_ZN5State16_sub_Op_ReverseLEPK4Node(ptr nocapture noundef nonnull align 8 dereferenceable(1920) %0, ptr nocapture readnone %1) local_unnamed_addr #1 align 2 {
  %3 = getelementptr inbounds i8, ptr %0, i64 1904
  %4 = load ptr, ptr %3, align 8
  %.not = icmp eq ptr %4, null
  br i1 %.not, label %.thread, label %5

5:                                                ; preds = %2
  %6 = getelementptr inbounds i8, ptr %4, i64 1396
  %7 = load i16, ptr %6, align 4
  %8 = and i16 %7, 1
  %.not25 = icmp eq i16 %8, 0
  br i1 %.not25, label %.thread, label %9

9:                                                ; preds = %5
  %10 = load i64, ptr @_ZN19Abstract_VM_Version9_featuresE, align 8
  %11 = and i64 %10, 2251799813685248
  %.not48 = icmp eq i64 %11, 0
  br i1 %.not48, label %.thread54, label %12

12:                                               ; preds = %9
  %13 = getelementptr inbounds i8, ptr %4, i64 272
  %14 = load i32, ptr %13, align 8
  %15 = add i32 %14, 100
  %16 = getelementptr inbounds i8, ptr %0, i64 272
  %17 = getelementptr inbounds i8, ptr %0, i64 1396
  %18 = add i32 %14, 200
  %19 = getelementptr inbounds i8, ptr %0, i64 432
  store i32 %18, ptr %19, align 8
  %20 = getelementptr inbounds i8, ptr %0, i64 1476
  store i16 633, ptr %20, align 4
  %21 = getelementptr inbounds i8, ptr %0, i64 296
  store i32 %15, ptr %21, align 8
  %22 = getelementptr inbounds i8, ptr %0, i64 1408
  store i16 1285, ptr %22, align 8
  %23 = insertelement <4 x i32> poison, i32 %15, i64 0
  %24 = shufflevector <4 x i32> %23, <4 x i32> poison, <4 x i32> zeroinitializer
  store <4 x i32> %24, ptr %16, align 8
  store <4 x i16> <i16 1285, i16 1285, i16 1285, i16 1285>, ptr %17, align 4
  %25 = getelementptr inbounds i8, ptr %0, i64 288
  store i32 %15, ptr %25, align 8
  %26 = getelementptr inbounds i8, ptr %0, i64 1404
  store i16 1285, ptr %26, align 4
  %27 = getelementptr inbounds i8, ptr %0, i64 292
  store i32 %15, ptr %27, align 4
  %28 = getelementptr inbounds i8, ptr %0, i64 1406
  store i16 1285, ptr %28, align 2
  %.pre = load i16, ptr %6, align 4
  %.pre50 = and i16 %.pre, 1
  %29 = icmp eq i16 %.pre50, 0
  br i1 %29, label %.thread, label %.thread54

.thread54:                                        ; preds = %9, %12
  %30 = load i64, ptr @_ZN19Abstract_VM_Version9_featuresE, align 8
  %31 = and i64 %30, 2251799813685248
  %.not49 = icmp eq i64 %31, 0
  br i1 %.not49, label %32, label %.thread

32:                                               ; preds = %.thread54
  %33 = getelementptr inbounds i8, ptr %4, i64 272
  %34 = load i32, ptr %33, align 8
  %35 = add i32 %34, 100
  %36 = getelementptr inbounds i8, ptr %0, i64 1396
  %37 = load i16, ptr %36, align 4
  %38 = and i16 %37, 1
  %39 = icmp eq i16 %38, 0
  %40 = getelementptr inbounds i8, ptr %0, i64 272
  %41 = load i32, ptr %40, align 8
  %42 = icmp ugt i32 %41, %35
  %or.cond = select i1 %39, i1 true, i1 %42
  br i1 %or.cond, label %43, label %44

43:                                               ; preds = %32
  store i32 %35, ptr %40, align 8
  store i16 1283, ptr %36, align 4
  br label %44

44:                                               ; preds = %32, %43
  %45 = getelementptr inbounds i8, ptr %0, i64 1476
  %46 = load i16, ptr %45, align 4
  %47 = and i16 %46, 1
  %48 = icmp eq i16 %47, 0
  br i1 %48, label %._crit_edge, label %49

._crit_edge:                                      ; preds = %44
  %.pre51 = add i32 %34, 200
  br label %54

49:                                               ; preds = %44
  %50 = getelementptr inbounds i8, ptr %0, i64 432
  %51 = load i32, ptr %50, align 8
  %52 = add i32 %34, 200
  %53 = icmp ugt i32 %51, %52
  br i1 %53, label %54, label %56

54:                                               ; preds = %._crit_edge, %49
  %.pre-phi52 = phi i32 [ %.pre51, %._crit_edge ], [ %52, %49 ]
  %55 = getelementptr inbounds i8, ptr %0, i64 432
  store i32 %.pre-phi52, ptr %55, align 8
  store i16 633, ptr %45, align 4
  br label %56

56:                                               ; preds = %54, %49
  %57 = getelementptr inbounds i8, ptr %0, i64 1398
  %58 = load i16, ptr %57, align 2
  %59 = and i16 %58, 1
  %60 = icmp eq i16 %59, 0
  %61 = getelementptr inbounds i8, ptr %0, i64 276
  %62 = load i32, ptr %61, align 4
  %63 = icmp ugt i32 %62, %35
  %or.cond32 = select i1 %60, i1 true, i1 %63
  br i1 %or.cond32, label %64, label %65

64:                                               ; preds = %56
  store i32 %35, ptr %61, align 4
  store i16 1283, ptr %57, align 2
  br label %65

65:                                               ; preds = %56, %64
  %66 = getelementptr inbounds i8, ptr %0, i64 1400
  %67 = load i16, ptr %66, align 8
  %68 = and i16 %67, 1
  %69 = icmp eq i16 %68, 0
  %70 = getelementptr inbounds i8, ptr %0, i64 280
  %71 = load i32, ptr %70, align 8
  %72 = icmp ugt i32 %71, %35
  %or.cond35 = select i1 %69, i1 true, i1 %72
  br i1 %or.cond35, label %73, label %74

73:                                               ; preds = %65
  store i32 %35, ptr %70, align 8
  store i16 1283, ptr %66, align 8
  br label %74

74:                                               ; preds = %65, %73
  %75 = getelementptr inbounds i8, ptr %0, i64 1408
  %76 = load i16, ptr %75, align 8
  %77 = and i16 %76, 1
  %78 = icmp eq i16 %77, 0
  %79 = getelementptr inbounds i8, ptr %0, i64 296
  %80 = load i32, ptr %79, align 8
  %81 = icmp ugt i32 %80, %35
  %or.cond38 = select i1 %78, i1 true, i1 %81
  br i1 %or.cond38, label %82, label %83

82:                                               ; preds = %74
  store i32 %35, ptr %79, align 8
  store i16 1283, ptr %75, align 8
  br label %83

83:                                               ; preds = %74, %82
  %84 = getelementptr inbounds i8, ptr %0, i64 1402
  %85 = load i16, ptr %84, align 2
  %86 = and i16 %85, 1
  %87 = icmp eq i16 %86, 0
  %88 = getelementptr inbounds i8, ptr %0, i64 284
  %89 = load i32, ptr %88, align 4
  %90 = icmp ugt i32 %89, %35
  %or.cond41 = select i1 %87, i1 true, i1 %90
  br i1 %or.cond41, label %91, label %92

91:                                               ; preds = %83
  store i32 %35, ptr %88, align 4
  store i16 1283, ptr %84, align 2
  br label %92

92:                                               ; preds = %83, %91
  %93 = getelementptr inbounds i8, ptr %0, i64 1404
  %94 = load i16, ptr %93, align 4
  %95 = and i16 %94, 1
  %96 = icmp eq i16 %95, 0
  %97 = getelementptr inbounds i8, ptr %0, i64 288
  %98 = load i32, ptr %97, align 8
  %99 = icmp ugt i32 %98, %35
  %or.cond44 = select i1 %96, i1 true, i1 %99
  br i1 %or.cond44, label %100, label %101

100:                                              ; preds = %92
  store i32 %35, ptr %97, align 8
  store i16 1283, ptr %93, align 4
  br label %101

101:                                              ; preds = %92, %100
  %102 = getelementptr inbounds i8, ptr %0, i64 1406
  %103 = load i16, ptr %102, align 2
  %104 = and i16 %103, 1
  %105 = icmp eq i16 %104, 0
  %106 = getelementptr inbounds i8, ptr %0, i64 292
  %107 = load i32, ptr %106, align 4
  %108 = icmp ugt i32 %107, %35
  %or.cond47 = select i1 %105, i1 true, i1 %108
  br i1 %or.cond47, label %109, label %.thread

109:                                              ; preds = %101
  store i32 %35, ptr %106, align 4
  store i16 1283, ptr %102, align 2
  br label %.thread

.thread:                                          ; preds = %5, %2, %101, %109, %.thread54, %12
  ret void
}